; Function Attrs: mustprogress uwtable
define hidden noundef i64 @_ZN6Assimp3FBX14ParseTokenAsIDERKNS0_5TokenE(ptr noundef nonnull align 8 dereferenceable(36) %t) local_unnamed_addr #3 personality ptr @__gxx_personality_v0 {
entry:
  %length.i = alloca i32, align 4
  %out.i = alloca ptr, align 8
  %ref.tmp = alloca %"class.std::__cxx11::basic_string", align 8
  %ref.tmp1 = alloca %"class.std::allocator.5", align 1
  call void @llvm.lifetime.start.p0(i64 4, ptr nonnull %length.i)
  call void @llvm.lifetime.start.p0(i64 8, ptr nonnull %out.i)
  %type.i.i = getelementptr inbounds i8, ptr %t, i64 16
  %0 = load i32, ptr %type.i.i, align 8
  %cmp.not.i = icmp eq i32 %0, 2
  br i1 %cmp.not.i, label %if.end.i, label %if.then

if.end.i:                                         ; preds = %entry
  %column.i.i = getelementptr inbounds i8, ptr %t, i64 32
  %1 = load i32, ptr %column.i.i, align 8
  %cmp.i.i = icmp eq i32 %1, -1
  br i1 %cmp.i.i, label %if.then2.i, label %if.end9.i

if.then2.i:                                       ; preds = %if.end.i
  %2 = load ptr, ptr %t, align 8
  %3 = load i8, ptr %2, align 1
  %cmp4.not.i = icmp eq i8 %3, 76
  br i1 %cmp4.not.i, label %if.end6.i, label %if.then

if.end6.i:                                        ; preds = %if.then2.i
  %add.ptr.i = getelementptr inbounds i8, ptr %2, i64 1
  %add.ptr.val.i = load i64, ptr %add.ptr.i, align 1
  br label %if.end

if.end9.i:                                        ; preds = %if.end.i
  %send.i12.i = getelementptr inbounds i8, ptr %t, i64 8
  %4 = load ptr, ptr %send.i12.i, align 8
  %5 = load ptr, ptr %t, align 8
  %sub.ptr.lhs.cast.i = ptrtoint ptr %4 to i64
  %sub.ptr.rhs.cast.i = ptrtoint ptr %5 to i64
  %sub.ptr.sub.i = sub i64 %sub.ptr.lhs.cast.i, %sub.ptr.rhs.cast.i
  %conv12.i = trunc i64 %sub.ptr.sub.i to i32
  store i32 %conv12.i, ptr %length.i, align 4
  store ptr null, ptr %out.i, align 8
  %call15.i = call noundef i64 @_ZN6Assimp12strtoul10_64I17DeadlyImportErrorEEmPKcPS3_Pj(ptr noundef %5, ptr noundef nonnull %out.i, ptr noundef nonnull %length.i)
  %6 = load ptr, ptr %out.i, align 8
  %7 = load ptr, ptr %send.i12.i, align 8
  %cmp17.i = icmp ugt ptr %6, %7
  br i1 %cmp17.i, label %if.then, label %if.end

if.then:                                          ; preds = %if.end9.i, %entry, %if.then2.i
  %err.0.ph = phi ptr [ @.str.10, %if.then2.i ], [ @.str.9, %entry ], [ @.str.11, %if.end9.i ]
  call void @llvm.lifetime.end.p0(i64 4, ptr nonnull %length.i)
  call void @llvm.lifetime.end.p0(i64 8, ptr nonnull %out.i)
  call void @_ZNSaIcEC1Ev(ptr noundef nonnull align 1 dereferenceable(1) %ref.tmp1) #21
  invoke void @_ZNSt7__cxx1112basic_stringIcSt11char_traitsIcESaIcEEC2IS3_EEPKcRKS3_(ptr noundef nonnull align 8 dereferenceable(32) %ref.tmp, ptr noundef nonnull %err.0.ph, ptr noundef nonnull align 1 dereferenceable(1) %ref.tmp1)
          to label %invoke.cont unwind label %lpad

invoke.cont:                                      ; preds = %if.then
  invoke fastcc void @_ZN12_GLOBAL__N_110ParseErrorERKNSt7__cxx1112basic_stringIcSt11char_traitsIcESaIcEEERKN6Assimp3FBX5TokenE(ptr noundef nonnull align 8 dereferenceable(32) %ref.tmp, ptr noundef nonnull align 8 dereferenceable(36) %t) #22
          to label %invoke.cont3 unwind label %lpad2

invoke.cont3:                                     ; preds = %invoke.cont
  unreachable

lpad:                                             ; preds = %if.then
  %8 = landingpad { ptr, i32 }
          cleanup
  br label %ehcleanup

lpad2:                                            ; preds = %invoke.cont
  %9 = landingpad { ptr, i32 }
          cleanup
  call void @_ZNSt7__cxx1112basic_stringIcSt11char_traitsIcESaIcEED1Ev(ptr noundef nonnull align 8 dereferenceable(32) %ref.tmp) #21
  br label %ehcleanup

ehcleanup:                                        ; preds = %lpad2, %lpad
  %.pn = phi { ptr, i32 } [ %9, %lpad2 ], [ %8, %lpad ]
  call void @_ZNSaIcED1Ev(ptr noundef nonnull align 1 dereferenceable(1) %ref.tmp1) #21
  resume { ptr, i32 } %.pn

if.end:                                           ; preds = %if.end9.i, %if.end6.i
  %retval.0.i = phi i64 [ %add.ptr.val.i, %if.end6.i ], [ %call15.i, %if.end9.i ]
  call void @llvm.lifetime.end.p0(i64 4, ptr nonnull %length.i)
  call void @llvm.lifetime.end.p0(i64 8, ptr nonnull %out.i)
  ret i64 %retval.0.i
}